target datalayout = "e-m:e-p270:32:32-p271:32:32-p272:64:64-i64:64-i128:128-f80:128-n8:16:32:64-S128"
target triple = "x86_64-pc-linux-gnu"

%class.Node = type <{ ptr, ptr, ptr, i32, i32, i32, i32, i32, i32, i32, [4 x i8] }>
%class.PhaseTransform = type { ptr, %class.Phase }
%class.Phase = type { i32, ptr }
%class.PhaseValues = type { %class.PhaseTransform, i8, ptr, ptr, [137 x ptr], [137 x ptr], [20 x ptr] }
%class.TypeInt = type { %class.TypeInteger.base, i32, i32 }
%class.TypeInteger.base = type { %class.Type.base, i16 }
%class.Type.base = type <{ ptr, ptr, i32 }>
%class.Type_Array = type { ptr, i32, ptr }

@_ZN4Type3TOPE = external global ptr, align 8

; Function Attrs: mustprogress nounwind uwtable
define linkonce_odr hidden noundef ptr @_ZNK10Type_Array11fast_lookupEj(ptr noundef nonnull align 8 dereferenceable(24) %0, i32 noundef %1) #1 comdat align 2 {
  %3 = alloca ptr, align 8
  %4 = alloca i32, align 4
  store ptr %0, ptr %3, align 8
  store i32 %1, ptr %4, align 4
  %5 = load ptr, ptr %3, align 8
  %6 = getelementptr inbounds %class.Type_Array, ptr %5, i32 0, i32 2
  %7 = load ptr, ptr %6, align 8
  %8 = load i32, ptr %4, align 4
  %9 = zext i32 %8 to i64
  %10 = getelementptr inbounds ptr, ptr %7, i64 %9
  %11 = load ptr, ptr %10, align 8
  ret ptr %11
}

; Function Attrs: mustprogress nounwind uwtable
define linkonce_odr hidden noundef zeroext i1 @_ZNK7TypeInt6is_conEv(ptr noundef nonnull align 8 dereferenceable(32) %0) #1 comdat align 2 {
  %2 = alloca ptr, align 8
  store ptr %0, ptr %2, align 8
  %3 = load ptr, ptr %2, align 8
  %4 = getelementptr inbounds %class.TypeInt, ptr %3, i32 0, i32 1
  %5 = load i32, ptr %4, align 8
  %6 = getelementptr inbounds %class.TypeInt, ptr %3, i32 0, i32 2
  %7 = load i32, ptr %6, align 4
  %8 = icmp eq i32 %5, %7
  ret i1 %8
}

; Function Attrs: mustprogress nounwind uwtable
define linkonce_odr hidden noundef i32 @_ZNK7TypeInt7get_conEv(ptr noundef nonnull align 8 dereferenceable(32) %0) #1 comdat align 2 {
  %2 = alloca ptr, align 8
  store ptr %0, ptr %2, align 8
  %3 = load ptr, ptr %2, align 8
  %4 = getelementptr inbounds %class.TypeInt, ptr %3, i32 0, i32 1
  %5 = load i32, ptr %4, align 8
  ret i32 %5
}

; Function Attrs: mustprogress nounwind uwtable
define linkonce_odr hidden noundef ptr @_ZNK4Type6is_intEv(ptr noundef nonnull align 8 dereferenceable(20) %0) #1 comdat align 2 {
  %2 = alloca ptr, align 8
  store ptr %0, ptr %2, align 8
  %3 = load ptr, ptr %2, align 8
  ret ptr %3
}

; Function Attrs: mustprogress nounwind uwtable
define linkonce_odr hidden noundef ptr @_ZNK11PhaseValues4typeEPK4Node(ptr noundef nonnull align 8 dereferenceable(2400) %0, ptr noundef %1) #1 comdat align 2 {
  %3 = alloca ptr, align 8
  %4 = alloca ptr, align 8
  %5 = alloca ptr, align 8
  store ptr %0, ptr %3, align 8
  store ptr %1, ptr %4, align 8
  %6 = load ptr, ptr %3, align 8
  %7 = getelementptr inbounds %class.PhaseValues, ptr %6, i32 0, i32 3
  %8 = load ptr, ptr %7, align 8
  %9 = load ptr, ptr %4, align 8
  %10 = getelementptr inbounds %class.Node, ptr %9, i32 0, i32 7
  %11 = load i32, ptr %10, align 8
  %12 = call noundef ptr @_ZNK10Type_Array11fast_lookupEj(ptr noundef nonnull align 8 dereferenceable(24) %8, i32 noundef %11)
  store ptr %12, ptr %5, align 8
  %13 = load ptr, ptr %5, align 8
  ret ptr %13
}

; Function Attrs: mustprogress nounwind uwtable
define linkonce_odr hidden noundef ptr @_ZNK4Node2inEj(ptr noundef nonnull align 8 dereferenceable(52) %0, i32 noundef %1) #1 comdat align 2 {
  %3 = alloca ptr, align 8
  %4 = alloca i32, align 4
  store ptr %0, ptr %3, align 8
  store i32 %1, ptr %4, align 4
  %5 = load ptr, ptr %3, align 8
  %6 = getelementptr inbounds %class.Node, ptr %5, i32 0, i32 1
  %7 = load ptr, ptr %6, align 8
  %8 = load i32, ptr %4, align 4
  %9 = zext i32 %8 to i64
  %10 = getelementptr inbounds ptr, ptr %7, i64 %9
  %11 = load ptr, ptr %10, align 8
  ret ptr %11
}

; Function Attrs: mustprogress nounwind uwtable
define hidden noundef ptr @_ZNK13LoopLimitNode5ValueEP8PhaseGVN(ptr noundef nonnull align 8 dereferenceable(52) %0, ptr noundef %1) unnamed_addr #1 align 2 {
  %3 = alloca ptr, align 8
  %4 = alloca ptr, align 8
  %5 = alloca ptr, align 8
  %6 = alloca ptr, align 8
  %7 = alloca ptr, align 8
  %8 = alloca ptr, align 8
  %9 = alloca i32, align 4
  %10 = alloca i64, align 8
  %11 = alloca i64, align 8
  %12 = alloca i32, align 4
  %13 = alloca i64, align 8
  %14 = alloca i64, align 8
  %15 = alloca i32, align 4
  store ptr %0, ptr %4, align 8
  store ptr %1, ptr %5, align 8
  %16 = load ptr, ptr %4, align 8
  %17 = load ptr, ptr %5, align 8
  %18 = call noundef ptr @_ZNK4Node2inEj(ptr noundef nonnull align 8 dereferenceable(52) %16, i32 noundef 1)
  %19 = call noundef ptr @_ZNK11PhaseValues4typeEPK4Node(ptr noundef nonnull align 8 dereferenceable(2400) %17, ptr noundef %18)
  store ptr %19, ptr %6, align 8
  %20 = load ptr, ptr %5, align 8
  %21 = call noundef ptr @_ZNK4Node2inEj(ptr noundef nonnull align 8 dereferenceable(52) %16, i32 noundef 2)
  %22 = call noundef ptr @_ZNK11PhaseValues4typeEPK4Node(ptr noundef nonnull align 8 dereferenceable(2400) %20, ptr noundef %21)
  store ptr %22, ptr %7, align 8
  %23 = load ptr, ptr %5, align 8
  %24 = call noundef ptr @_ZNK4Node2inEj(ptr noundef nonnull align 8 dereferenceable(52) %16, i32 noundef 3)
  %25 = call noundef ptr @_ZNK11PhaseValues4typeEPK4Node(ptr noundef nonnull align 8 dereferenceable(2400) %23, ptr noundef %24)
  store ptr %25, ptr %8, align 8
  %26 = load ptr, ptr %6, align 8
  %27 = load ptr, ptr @_ZN4Type3TOPE, align 8
  %28 = icmp eq ptr %26, %27
  br i1 %28, label %29, label %31

29:                                               ; preds = %2
  %30 = load ptr, ptr @_ZN4Type3TOPE, align 8
  store ptr %30, ptr %3, align 8
  br label %110

31:                                               ; preds = %2
  %32 = load ptr, ptr %7, align 8
  %33 = load ptr, ptr @_ZN4Type3TOPE, align 8
  %34 = icmp eq ptr %32, %33
  br i1 %34, label %35, label %37

35:                                               ; preds = %31
  %36 = load ptr, ptr @_ZN4Type3TOPE, align 8
  store ptr %36, ptr %3, align 8
  br label %110

37:                                               ; preds = %31
  %38 = load ptr, ptr %8, align 8
  %39 = load ptr, ptr @_ZN4Type3TOPE, align 8
  %40 = icmp eq ptr %38, %39
  br i1 %40, label %41, label %43

41:                                               ; preds = %37
  %42 = load ptr, ptr @_ZN4Type3TOPE, align 8
  store ptr %42, ptr %3, align 8
  br label %110

43:                                               ; preds = %37
  %44 = load ptr, ptr %8, align 8
  %45 = call noundef ptr @_ZNK4Type6is_intEv(ptr noundef nonnull align 8 dereferenceable(20) %44)
  %46 = call noundef i32 @_ZNK7TypeInt7get_conEv(ptr noundef nonnull align 8 dereferenceable(32) %45)
  store i32 %46, ptr %9, align 4
  %47 = load i32, ptr %9, align 4
  %48 = icmp eq i32 %47, 1
  br i1 %48, label %49, label %54

49:                                               ; preds = %43
  %50 = load ptr, ptr %16, align 8
  %51 = getelementptr inbounds ptr, ptr %50, i64 5
  %52 = load ptr, ptr %51, align 8
  %53 = call noundef ptr %52(ptr noundef nonnull align 8 dereferenceable(52) %16)
  store ptr %53, ptr %3, align 8
  br label %110

54:                                               ; preds = %43
  %55 = load ptr, ptr %6, align 8
  %56 = call noundef ptr @_ZNK4Type6is_intEv(ptr noundef nonnull align 8 dereferenceable(20) %55)
  %57 = call noundef zeroext i1 @_ZNK7TypeInt6is_conEv(ptr noundef nonnull align 8 dereferenceable(32) %56)
  br i1 %57, label %58, label %105

58:                                               ; preds = %54
  %59 = load ptr, ptr %7, align 8
  %60 = call noundef ptr @_ZNK4Type6is_intEv(ptr noundef nonnull align 8 dereferenceable(20) %59)
  %61 = call noundef zeroext i1 @_ZNK7TypeInt6is_conEv(ptr noundef nonnull align 8 dereferenceable(32) %60)
  br i1 %61, label %62, label %105

62:                                               ; preds = %58
  %63 = load ptr, ptr %6, align 8
  %64 = call noundef ptr @_ZNK4Type6is_intEv(ptr noundef nonnull align 8 dereferenceable(20) %63)
  %65 = call noundef i32 @_ZNK7TypeInt7get_conEv(ptr noundef nonnull align 8 dereferenceable(32) %64)
  %66 = sext i32 %65 to i64
  store i64 %66, ptr %10, align 8
  %67 = load ptr, ptr %7, align 8
  %68 = call noundef ptr @_ZNK4Type6is_intEv(ptr noundef nonnull align 8 dereferenceable(20) %67)
  %69 = call noundef i32 @_ZNK7TypeInt7get_conEv(ptr noundef nonnull align 8 dereferenceable(32) %68)
  %70 = sext i32 %69 to i64
  store i64 %70, ptr %11, align 8
  %71 = load i32, ptr %9, align 4
  %72 = load i32, ptr %9, align 4
  %73 = icmp sgt i32 %72, 0
  %74 = select i1 %73, i32 1, i32 -1
  %75 = sub nsw i32 %71, %74
  store i32 %75, ptr %12, align 4
  %76 = load i64, ptr %11, align 8
  %77 = load i64, ptr %10, align 8
  %78 = sub nsw i64 %76, %77
  %79 = load i32, ptr %12, align 4
  %80 = sext i32 %79 to i64
  %81 = add nsw i64 %78, %80
  %82 = load i32, ptr %9, align 4
  %83 = sext i32 %82 to i64
  %84 = sdiv i64 %81, %83
  store i64 %84, ptr %13, align 8
  %85 = load i64, ptr %10, align 8
  %86 = load i32, ptr %9, align 4
  %87 = sext i32 %86 to i64
  %88 = load i64, ptr %13, align 8
  %89 = mul nsw i64 %87, %88
  %90 = add nsw i64 %85, %89
  store i64 %90, ptr %14, align 8
  %91 = load i64, ptr %14, align 8
  %92 = trunc i64 %91 to i32
  store i32 %92, ptr %15, align 4
  %93 = load i64, ptr %14, align 8
  %94 = load i32, ptr %15, align 4
  %95 = sext i32 %94 to i64
  %96 = icmp eq i64 %93, %95
  br i1 %96, label %97, label %100

97:                                               ; preds = %62
  %98 = load i32, ptr %15, align 4
  %99 = call noundef ptr @_ZN7TypeInt4makeEi(i32 noundef %98)
  store ptr %99, ptr %3, align 8
  br label %110

100:                                              ; preds = %62
  %101 = load ptr, ptr %16, align 8
  %102 = getelementptr inbounds ptr, ptr %101, i64 5
  %103 = load ptr, ptr %102, align 8
  %104 = call noundef ptr %103(ptr noundef nonnull align 8 dereferenceable(52) %16)
  store ptr %104, ptr %3, align 8
  br label %110

105:                                              ; preds = %58, %54
  %106 = load ptr, ptr %16, align 8
  %107 = getelementptr inbounds ptr, ptr %106, i64 5
  %108 = load ptr, ptr %107, align 8
  %109 = call noundef ptr %108(ptr noundef nonnull align 8 dereferenceable(52) %16)
  store ptr %109, ptr %3, align 8
  br label %110

110:                                              ; preds = %105, %100, %97, %49, %41, %35, %29
  %111 = load ptr, ptr %3, align 8
  ret ptr %111
}