; Function Attrs: mustprogress nounwind uwtable
define hidden noundef ptr @_ZNK13LoopLimitNode5ValueEP8PhaseGVN(ptr noundef nonnull align 8 dereferenceable(52) %0, ptr nocapture noundef readonly %1) unnamed_addr #0 align 2 {
  %3 = getelementptr inbounds i8, ptr %0, i64 8
  %4 = load ptr, ptr %3, align 8
  %5 = getelementptr inbounds i8, ptr %4, i64 8
  %6 = load ptr, ptr %5, align 8
  %7 = getelementptr inbounds i8, ptr %1, i64 40
  %8 = load ptr, ptr %7, align 8
  %9 = getelementptr inbounds i8, ptr %6, i64 40
  %10 = load i32, ptr %9, align 8
  %11 = getelementptr inbounds i8, ptr %8, i64 16
  %12 = load ptr, ptr %11, align 8
  %13 = zext i32 %10 to i64
  %14 = getelementptr inbounds ptr, ptr %12, i64 %13
  %15 = load ptr, ptr %14, align 8
  %16 = getelementptr inbounds i8, ptr %4, i64 16
  %17 = load ptr, ptr %16, align 8
  %18 = getelementptr inbounds i8, ptr %17, i64 40
  %19 = load i32, ptr %18, align 8
  %20 = zext i32 %19 to i64
  %21 = getelementptr inbounds ptr, ptr %12, i64 %20
  %22 = load ptr, ptr %21, align 8
  %23 = getelementptr inbounds i8, ptr %4, i64 24
  %24 = load ptr, ptr %23, align 8
  %25 = getelementptr inbounds i8, ptr %24, i64 40
  %26 = load i32, ptr %25, align 8
  %27 = zext i32 %26 to i64
  %28 = getelementptr inbounds ptr, ptr %12, i64 %27
  %29 = load ptr, ptr %28, align 8
  %30 = load ptr, ptr @_ZN4Type3TOPE, align 8
  %31 = icmp eq ptr %15, %30
  %32 = icmp eq ptr %22, %30
  %or.cond = or i1 %31, %32
  %33 = icmp eq ptr %29, %30
  %or.cond31 = or i1 %33, %or.cond
  br i1 %or.cond31, label %81, label %34

34:                                               ; preds = %2
  %35 = getelementptr inbounds i8, ptr %29, i64 24
  %36 = load i32, ptr %35, align 8
  %37 = icmp eq i32 %36, 1
  br i1 %37, label %38, label %43

38:                                               ; preds = %34
  %39 = load ptr, ptr %0, align 8
  %40 = getelementptr inbounds i8, ptr %39, i64 40
  %41 = load ptr, ptr %40, align 8
  %42 = tail call noundef ptr %41(ptr noundef nonnull align 8 dereferenceable(52) %0) #15
  br label %81

43:                                               ; preds = %34
  %44 = getelementptr inbounds i8, ptr %15, i64 24
  %45 = load i32, ptr %44, align 8
  %46 = getelementptr inbounds i8, ptr %15, i64 28
  %47 = load i32, ptr %46, align 4
  %48 = icmp eq i32 %45, %47
  br i1 %48, label %49, label %76

49:                                               ; preds = %43
  %50 = getelementptr inbounds i8, ptr %22, i64 24
  %51 = load i32, ptr %50, align 8
  %52 = getelementptr inbounds i8, ptr %22, i64 28
  %53 = load i32, ptr %52, align 4
  %54 = icmp eq i32 %51, %53
  br i1 %54, label %55, label %76

55:                                               ; preds = %49
  %56 = sext i32 %45 to i64
  %57 = sext i32 %51 to i64
  %.inv = icmp slt i32 %36, 1
  %.neg = select i1 %.inv, i32 1, i32 -1
  %58 = add i32 %.neg, %36
  %59 = sub nsw i64 %57, %56
  %60 = sext i32 %58 to i64
  %61 = add nsw i64 %59, %60
  %62 = sext i32 %36 to i64
  %63 = srem i64 %61, %62
  %64 = sub nsw i64 %61, %63
  %65 = add nsw i64 %64, %56
  %66 = add nsw i64 %65, 2147483648
  %67 = icmp ult i64 %66, 4294967296
  br i1 %67, label %68, label %71

68:                                               ; preds = %55
  %69 = trunc i64 %65 to i32
  %70 = tail call noundef ptr @_ZN7TypeInt4makeEi(i32 noundef %69) #15
  br label %81

71:                                               ; preds = %55
  %72 = load ptr, ptr %0, align 8
  %73 = getelementptr inbounds i8, ptr %72, i64 40
  %74 = load ptr, ptr %73, align 8
  %75 = tail call noundef ptr %74(ptr noundef nonnull align 8 dereferenceable(52) %0) #15
  br label %81

76:                                               ; preds = %49, %43
  %77 = load ptr, ptr %0, align 8
  %78 = getelementptr inbounds i8, ptr %77, i64 40
  %79 = load ptr, ptr %78, align 8
  %80 = tail call noundef ptr %79(ptr noundef nonnull align 8 dereferenceable(52) %0) #15
  br label %81

81:                                               ; preds = %2, %76, %71, %68, %38
  %.0 = phi ptr [ %42, %38 ], [ %70, %68 ], [ %75, %71 ], [ %80, %76 ], [ %30, %2 ]
  ret ptr %.0
}